target datalayout = "e-m:e-p270:32:32-p271:32:32-p272:64:64-i64:64-i128:128-f80:128-n8:16:32:64-S128"
target triple = "x86_64-pc-linux-gnu"

%class.G1HeapRegionClosure.base = type <{ ptr, i8 }>
%class.G1HeapRegionClosure = type <{ ptr, i8, [7 x i8] }>
%"class.G1FullGCPrepareTask::G1CalculatePointersClosure" = type { %class.G1HeapRegionClosure.base, ptr, ptr, ptr, ptr }

@_ZTVN19G1FullGCPrepareTask26G1CalculatePointersClosureE = hidden unnamed_addr constant { [3 x ptr] } { [3 x ptr] [ptr null, ptr null, ptr @_ZN19G1FullGCPrepareTask26G1CalculatePointersClosure14do_heap_regionEP12G1HeapRegion] }, align 8
@_ZTV19G1HeapRegionClosure = linkonce_odr hidden unnamed_addr constant { [3 x ptr] } { [3 x ptr] [ptr null, ptr null, ptr @__cxa_pure_virtual] }, comdat, align 8
@_ZN8Universe14_collectedHeapE = external global ptr, align 8

; Function Attrs: mustprogress nounwind uwtable
define linkonce_odr hidden noundef ptr @_ZN8Universe4heapEv() #1 comdat align 2 {
  %1 = load ptr, ptr @_ZN8Universe14_collectedHeapE, align 8
  ret ptr %1
}

; Function Attrs: mustprogress nounwind uwtable
define linkonce_odr hidden noundef ptr @_ZN13CollectedHeap10named_heapI15G1CollectedHeapEEPT_NS_4NameE(i32 noundef %0) #1 comdat align 2 {
  %2 = alloca i32, align 4
  %3 = alloca ptr, align 8
  store i32 %0, ptr %2, align 4
  %4 = call noundef ptr @_ZN8Universe4heapEv()
  store ptr %4, ptr %3, align 8
  %5 = load ptr, ptr %3, align 8
  ret ptr %5
}

; Function Attrs: mustprogress nounwind uwtable
define linkonce_odr hidden noundef ptr @_ZN15G1CollectedHeap4heapEv() #1 comdat align 2 {
  %1 = call noundef ptr @_ZN13CollectedHeap10named_heapI15G1CollectedHeapEEPT_NS_4NameE(i32 noundef 3)
  ret ptr %1
}

; Function Attrs: mustprogress nounwind uwtable
define linkonce_odr hidden void @_ZN19G1HeapRegionClosureC2Ev(ptr noundef nonnull align 8 dereferenceable(9) %0) unnamed_addr #1 comdat align 2 {
  %2 = alloca ptr, align 8
  store ptr %0, ptr %2, align 8
  %3 = load ptr, ptr %2, align 8
  store ptr getelementptr inbounds inrange(-16, 8) ({ [3 x ptr] }, ptr @_ZTV19G1HeapRegionClosure, i32 0, i32 0, i32 2), ptr %3, align 8
  %4 = getelementptr inbounds %class.G1HeapRegionClosure, ptr %3, i32 0, i32 1
  store i8 1, ptr %4, align 8
  ret void
}

; Function Attrs: mustprogress nounwind uwtable
define hidden void @_ZN19G1FullGCPrepareTask26G1CalculatePointersClosureC2EP15G1FullCollectorP23G1FullGCCompactionPoint(ptr noundef nonnull align 8 dereferenceable(48) %0, ptr noundef %1, ptr noundef %2) unnamed_addr #1 align 2 {
  %4 = alloca ptr, align 8
  %5 = alloca ptr, align 8
  %6 = alloca ptr, align 8
  store ptr %0, ptr %4, align 8
  store ptr %1, ptr %5, align 8
  store ptr %2, ptr %6, align 8
  %7 = load ptr, ptr %4, align 8
  call void @_ZN19G1HeapRegionClosureC2Ev(ptr noundef nonnull align 8 dereferenceable(9) %7)
  store ptr getelementptr inbounds inrange(-16, 8) ({ [3 x ptr] }, ptr @_ZTVN19G1FullGCPrepareTask26G1CalculatePointersClosureE, i32 0, i32 0, i32 2), ptr %7, align 8
  %8 = getelementptr inbounds %"class.G1FullGCPrepareTask::G1CalculatePointersClosure", ptr %7, i32 0, i32 1
  %9 = call noundef ptr @_ZN15G1CollectedHeap4heapEv()
  store ptr %9, ptr %8, align 8
  %10 = getelementptr inbounds %"class.G1FullGCPrepareTask::G1CalculatePointersClosure", ptr %7, i32 0, i32 2
  %11 = load ptr, ptr %5, align 8
  store ptr %11, ptr %10, align 8
  %12 = getelementptr inbounds %"class.G1FullGCPrepareTask::G1CalculatePointersClosure", ptr %7, i32 0, i32 3
  %13 = load ptr, ptr %5, align 8
  %14 = call noundef ptr @_ZN15G1FullCollector11mark_bitmapEv(ptr noundef nonnull align 8 dereferenceable(824) %13)
  store ptr %14, ptr %12, align 8
  %15 = getelementptr inbounds %"class.G1FullGCPrepareTask::G1CalculatePointersClosure", ptr %7, i32 0, i32 4
  %16 = load ptr, ptr %6, align 8
  store ptr %16, ptr %15, align 8
  ret void
}