; Function Attrs: mustprogress nounwind uwtable
define hidden void @_ZN19G1FullGCPrepareTask26G1CalculatePointersClosureC2EP15G1FullCollectorP23G1FullGCCompactionPoint(ptr nocapture noundef nonnull writeonly align 8 dereferenceable(48) %0, ptr noundef nonnull %1, ptr noundef %2) unnamed_addr #1 align 2 {
  %4 = getelementptr inbounds i8, ptr %0, i64 8
  store i8 1, ptr %4, align 8
  store ptr getelementptr inbounds inrange(-16, 8) (i8, ptr @_ZTVN19G1FullGCPrepareTask26G1CalculatePointersClosureE, i64 16), ptr %0, align 8
  %5 = getelementptr inbounds i8, ptr %0, i64 16
  %6 = load ptr, ptr @_ZN8Universe14_collectedHeapE, align 8
  store ptr %6, ptr %5, align 8
  %7 = getelementptr inbounds i8, ptr %0, i64 24
  store ptr %1, ptr %7, align 8
  %8 = getelementptr inbounds i8, ptr %0, i64 32
  %9 = tail call noundef ptr @_ZN15G1FullCollector11mark_bitmapEv(ptr noundef nonnull align 8 dereferenceable(824) %1) #12
  store ptr %9, ptr %8, align 8
  %10 = getelementptr inbounds i8, ptr %0, i64 40
  store ptr %2, ptr %10, align 8
  ret void
}